; Function Attrs: mustprogress null_pointer_is_valid sspstrong uwtable
define void @_ZN20CompiledFilterOutput35on_interfaceList_currentItemChangedEP15QListWidgetItemS1_(ptr noundef align 8 dereferenceable_or_null(136) %0, ptr noundef %1, ptr noundef readnone captures(none) %2) local_unnamed_addr #0 align 2 personality ptr @__gxx_personality_v0 {
  %4 = alloca %class.QVariant, align 8
  %5 = alloca %class.QString, align 8
  call void @llvm.lifetime.start.p0(i64 24, ptr nonnull %5) #18
  call void @llvm.lifetime.start.p0(i64 32, ptr nonnull %4) #18, !noalias !17
  %6 = load ptr, ptr %1, align 8, !noalias !17
  %7 = getelementptr inbounds nuw i8, ptr %6, i64 24
  %8 = load ptr, ptr %7, align 8, !noalias !17
  call void %8(ptr dead_on_unwind nonnull writable sret(%class.QVariant) align 8 %4, ptr noundef align 8 dereferenceable_or_null(36) %1, i32 noundef 0), !noalias !17
  invoke void @_ZNK8QVariant8toStringEv(ptr dead_on_unwind nonnull writable sret(%class.QString) align 8 %5, ptr noundef nonnull align 8 dereferenceable_or_null(32) %4)
          to label %_ZNK15QListWidgetItem4textEv.exit unwind label %9

common.resume:                                    ; preds = %_ZN7QStringD2Ev.exit8, %9
  %common.resume.op = phi { ptr, i32 } [ %10, %9 ], [ %.pn, %_ZN7QStringD2Ev.exit8 ]
  resume { ptr, i32 } %common.resume.op

9:                                                ; preds = %3
  %10 = landingpad { ptr, i32 }
          cleanup
  call void @_ZN8QVariantD1Ev(ptr noundef nonnull align 8 dereferenceable_or_null(32) %4) #18
  call void @llvm.lifetime.end.p0(i64 32, ptr nonnull %4) #18, !noalias !17
  br label %common.resume

_ZNK15QListWidgetItem4textEv.exit:                ; preds = %3
  call void @_ZN8QVariantD1Ev(ptr noundef nonnull align 8 dereferenceable_or_null(32) %4) #18
  call void @llvm.lifetime.end.p0(i64 32, ptr nonnull %4) #18, !noalias !17
  %11 = getelementptr inbounds nuw i8, ptr %0, i64 112
  %12 = invoke { ptr, i64 } @_ZN5QHashI7QStringS0_E4findERKS0_(ptr noundef nonnull align 8 dereferenceable_or_null(8) %11, ptr noundef nonnull align 8 dereferenceable(24) %5)
          to label %13 unwind label %40

13:                                               ; preds = %_ZNK15QListWidgetItem4textEv.exit
  %14 = getelementptr inbounds nuw i8, ptr %0, i64 96
  %15 = load ptr, ptr %14, align 8
  %16 = getelementptr inbounds nuw i8, ptr %15, i64 24
  %17 = load ptr, ptr %16, align 8
  invoke void @_ZN9QTextEdit5clearEv(ptr noundef align 8 dereferenceable_or_null(40) %17)
          to label %18 unwind label %42

18:                                               ; preds = %13
  %19 = extractvalue { ptr, i64 } %12, 1
  %20 = extractvalue { ptr, i64 } %12, 0
  %21 = load ptr, ptr %14, align 8
  %22 = getelementptr inbounds nuw i8, ptr %21, i64 24
  %23 = load ptr, ptr %22, align 8
  %24 = getelementptr inbounds nuw i8, ptr %20, i64 32
  %25 = load ptr, ptr %24, align 8
  %26 = lshr i64 %19, 7
  %27 = getelementptr %"struct.QHashPrivate::Span", ptr %25, i64 %26
  %28 = and i64 %19, 127
  %29 = getelementptr inbounds nuw i8, ptr %27, i64 128
  %30 = load ptr, ptr %29, align 8
  %31 = getelementptr [128 x i8], ptr %27, i64 0, i64 %28
  %32 = load i8, ptr %31, align 1
  %33 = zext i8 %32 to i64
  %34 = getelementptr %"struct.QHashPrivate::Span<QHashPrivate::Node<QString, QString>>::Entry", ptr %30, i64 %33, i32 0, i32 0, i64 24
  invoke void @_ZN9QTextEdit12setPlainTextERK7QString(ptr noundef align 8 dereferenceable_or_null(40) %23, ptr noundef align 8 dereferenceable(24) %34)
          to label %35 unwind label %42

35:                                               ; preds = %18
  %36 = load ptr, ptr %5, align 8
  %.not.i.i.i = icmp eq ptr %36, null
  br i1 %.not.i.i.i, label %_ZN7QStringD2Ev.exit, label %_ZN17QArrayDataPointerIDsE5derefEv.exit.i.i

_ZN17QArrayDataPointerIDsE5derefEv.exit.i.i:      ; preds = %35
  %37 = atomicrmw sub ptr %36, i32 1 seq_cst, align 4
  %.not.i.i = icmp eq i32 %37, 1
  br i1 %.not.i.i, label %38, label %_ZN7QStringD2Ev.exit

38:                                               ; preds = %_ZN17QArrayDataPointerIDsE5derefEv.exit.i.i
  %39 = load ptr, ptr %5, align 8
  call void @_ZN10QArrayData10deallocateEPS_xx(ptr noundef %39, i64 noundef 2, i64 noundef 8) #18
  br label %_ZN7QStringD2Ev.exit

_ZN7QStringD2Ev.exit:                             ; preds = %35, %_ZN17QArrayDataPointerIDsE5derefEv.exit.i.i, %38
  call void @llvm.lifetime.end.p0(i64 24, ptr nonnull %5) #18
  ret void

40:                                               ; preds = %_ZNK15QListWidgetItem4textEv.exit
  %41 = landingpad { ptr, i32 }
          cleanup
  br label %44

42:                                               ; preds = %18, %13
  %43 = landingpad { ptr, i32 }
          cleanup
  br label %44

44:                                               ; preds = %42, %40
  %.pn = phi { ptr, i32 } [ %43, %42 ], [ %41, %40 ]
  %45 = load ptr, ptr %5, align 8
  %.not.i.i.i5 = icmp eq ptr %45, null
  br i1 %.not.i.i.i5, label %_ZN7QStringD2Ev.exit8, label %_ZN17QArrayDataPointerIDsE5derefEv.exit.i.i6

_ZN17QArrayDataPointerIDsE5derefEv.exit.i.i6:     ; preds = %44
  %46 = atomicrmw sub ptr %45, i32 1 seq_cst, align 4
  %.not.i.i7 = icmp eq i32 %46, 1
  br i1 %.not.i.i7, label %47, label %_ZN7QStringD2Ev.exit8

47:                                               ; preds = %_ZN17QArrayDataPointerIDsE5derefEv.exit.i.i6
  %48 = load ptr, ptr %5, align 8
  call void @_ZN10QArrayData10deallocateEPS_xx(ptr noundef %48, i64 noundef 2, i64 noundef 8) #18
  br label %_ZN7QStringD2Ev.exit8

_ZN7QStringD2Ev.exit8:                            ; preds = %44, %_ZN17QArrayDataPointerIDsE5derefEv.exit.i.i6, %47
  call void @llvm.lifetime.end.p0(i64 24, ptr nonnull %5) #18
  br label %common.resume
}